target datalayout = "e-m:e-p270:32:32-p271:32:32-p272:64:64-i64:64-i128:128-f80:128-n8:16:32:64-S128"
target triple = "x86_64-pc-linux-gnu"

%struct.pm_constant_id_list_t = type { i64, i64, ptr }

; Function Attrs: nounwind sspstrong uwtable
define hidden zeroext i1 @pm_constant_id_list_includes(ptr noundef %0, i32 noundef %1) #0 {
  %3 = alloca i1, align 1
  %4 = alloca ptr, align 8
  %5 = alloca i32, align 4
  %6 = alloca i64, align 8
  %7 = alloca i32, align 4
  store ptr %0, ptr %4, align 8, !tbaa !7
  store i32 %1, ptr %5, align 4, !tbaa !18
  call void @llvm.lifetime.start.p0(i64 8, ptr %6) #14
  store i64 0, ptr %6, align 8, !tbaa !17
  br label %8

8:                                                ; preds = %26, %2
  %9 = load i64, ptr %6, align 8, !tbaa !17
  %10 = load ptr, ptr %4, align 8, !tbaa !7
  %11 = getelementptr inbounds nuw %struct.pm_constant_id_list_t, ptr %10, i32 0, i32 0
  %12 = load i64, ptr %11, align 8, !tbaa !15
  %13 = icmp ult i64 %9, %12
  br i1 %13, label %15, label %14

14:                                               ; preds = %8
  store i32 2, ptr %7, align 4
  br label %29

15:                                               ; preds = %8
  %16 = load ptr, ptr %4, align 8, !tbaa !7
  %17 = getelementptr inbounds nuw %struct.pm_constant_id_list_t, ptr %16, i32 0, i32 2
  %18 = load ptr, ptr %17, align 8, !tbaa !11
  %19 = load i64, ptr %6, align 8, !tbaa !17
  %20 = getelementptr i32, ptr %18, i64 %19
  %21 = load i32, ptr %20, align 4, !tbaa !18
  %22 = load i32, ptr %5, align 4, !tbaa !18
  %23 = icmp eq i32 %21, %22
  br i1 %23, label %24, label %25

24:                                               ; preds = %15
  store i1 true, ptr %3, align 1
  store i32 1, ptr %7, align 4
  br label %29

25:                                               ; preds = %15
  br label %26

26:                                               ; preds = %25
  %27 = load i64, ptr %6, align 8, !tbaa !17
  %28 = add i64 %27, 1
  store i64 %28, ptr %6, align 8, !tbaa !17
  br label %8, !llvm.loop !20

29:                                               ; preds = %24, %14
  call void @llvm.lifetime.end.p0(i64 8, ptr %6) #14
  %30 = load i32, ptr %7, align 4
  switch i32 %30, label %34 [
    i32 2, label %31
    i32 1, label %32
  ]

31:                                               ; preds = %29
  store i1 false, ptr %3, align 1
  br label %32

32:                                               ; preds = %31, %29
  %33 = load i1, ptr %3, align 1
  ret i1 %33

34:                                               ; preds = %29
  unreachable
}