; Function Attrs: nofree norecurse nosync nounwind sspstrong memory(read, inaccessiblemem: none) uwtable
define hidden noundef zeroext i1 @pm_constant_id_list_includes(ptr noundef readonly captures(none) %0, i32 noundef %1) local_unnamed_addr #7 {
  %3 = load i64, ptr %0, align 8, !tbaa !14
  %.not9.not = icmp eq i64 %3, 0
  br i1 %.not9.not, label %._crit_edge, label %.lr.ph

.lr.ph:                                           ; preds = %2
  %4 = getelementptr inbounds nuw i8, ptr %0, i64 16
  %5 = load ptr, ptr %4, align 8, !tbaa !7
  br label %6

6:                                                ; preds = %6, %.lr.ph
  %.0710 = phi i64 [ 0, %.lr.ph ], [ %10, %6 ]
  %7 = getelementptr i32, ptr %5, i64 %.0710
  %8 = load i32, ptr %7, align 4, !tbaa !16
  %9 = icmp eq i32 %8, %1
  %10 = add nuw i64 %.0710, 1
  %exitcond.not = icmp eq i64 %10, %3
  %or.cond = select i1 %9, i1 true, i1 %exitcond.not
  br i1 %or.cond, label %._crit_edge, label %6, !llvm.loop !18

._crit_edge:                                      ; preds = %6, %2
  %.not.lcssa = phi i1 [ false, %2 ], [ %9, %6 ]
  ret i1 %.not.lcssa
}